; Function Attrs: mustprogress nofree norecurse nosync nounwind willreturn memory(readwrite, argmem: write, inaccessiblemem: none) uwtable
define hidden void @_ZN20ZStatPhaseCollectionC2EPKcb(ptr noundef nonnull align 8 dereferenceable(49) %0, ptr noundef %1, i1 noundef zeroext %2) unnamed_addr #3 align 2 {
  %4 = zext i1 %2 to i8
  %.str.15..str.16 = select i1 %2, ptr @.str.15, ptr @.str.16
  %5 = getelementptr inbounds i8, ptr %0, i64 8
  %6 = load i32, ptr @_ZN18ZStatIterableValueI12ZStatSamplerE6_countE, align 4
  %7 = add i32 %6, 1
  store i32 %7, ptr @_ZN18ZStatIterableValueI12ZStatSamplerE6_countE, align 4
  store ptr %.str.15..str.16, ptr %5, align 8
  %8 = getelementptr inbounds i8, ptr %0, i64 16
  store ptr %1, ptr %8, align 8
  %9 = getelementptr inbounds i8, ptr %0, i64 24
  store i32 %6, ptr %9, align 8
  %10 = getelementptr inbounds i8, ptr %0, i64 28
  %11 = load i32, ptr @_ZN10ZStatValue11_cpu_offsetE, align 4
  store i32 %11, ptr %10, align 4
  %12 = add i32 %11, 24
  store i32 %12, ptr @_ZN10ZStatValue11_cpu_offsetE, align 4
  %13 = getelementptr inbounds i8, ptr %0, i64 32
  %14 = load ptr, ptr @_ZN18ZStatIterableValueI12ZStatSamplerE6_firstE, align 8
  store ptr %5, ptr @_ZN18ZStatIterableValueI12ZStatSamplerE6_firstE, align 8
  store ptr %14, ptr %13, align 8
  %15 = getelementptr inbounds i8, ptr %0, i64 40
  store ptr @_Z13ZStatUnitTime15LogTargetHandleRK12ZStatSamplerRK19ZStatSamplerHistory, ptr %15, align 8
  store ptr getelementptr inbounds inrange(-16, 16) (i8, ptr @_ZTV20ZStatPhaseCollection, i64 16), ptr %0, align 8
  %16 = getelementptr inbounds i8, ptr %0, i64 48
  store i8 %4, ptr %16, align 8
  ret void
}